target datalayout = "e-m:e-p270:32:32-p271:32:32-p272:64:64-i64:64-i128:128-f80:128-n8:16:32:64-S128"
target triple = "x86_64-pc-linux-gnu"

%class.EnabledProtocolItem = type { %class.ModelHelperTreeItem, %class.QString, %class.QString, i8, i8, i32 }
%class.ModelHelperTreeItem = type { ptr, ptr, %class.QList }
%class.QList = type { %struct.QArrayDataPointer.0 }
%struct.QArrayDataPointer.0 = type { ptr, ptr, i64 }
%class.QString = type { %struct.QArrayDataPointer }
%struct.QArrayDataPointer = type { ptr, ptr, i64 }

; Function Attrs: mustprogress null_pointer_is_valid sspstrong uwtable
define noundef zeroext i1 @_ZN19EnabledProtocolItem10applyValueEv(ptr noundef align 8 dereferenceable_or_null(96) %0) #0 align 2 {
  %2 = alloca i1, align 1
  %3 = alloca ptr, align 8
  store ptr %0, ptr %3, align 8
  %4 = load ptr, ptr %3, align 8
  %5 = getelementptr inbounds nuw %class.EnabledProtocolItem, ptr %4, i32 0, i32 4
  %6 = load i8, ptr %5, align 1, !range !6, !noundef !7
  %7 = trunc i8 %6 to i1
  %8 = zext i1 %7 to i32
  %9 = getelementptr inbounds nuw %class.EnabledProtocolItem, ptr %4, i32 0, i32 3
  %10 = load i8, ptr %9, align 8, !range !6, !noundef !7
  %11 = trunc i8 %10 to i1
  %12 = zext i1 %11 to i32
  %13 = icmp ne i32 %8, %12
  br i1 %13, label %14, label %21

14:                                               ; preds = %1
  %15 = getelementptr inbounds nuw %class.EnabledProtocolItem, ptr %4, i32 0, i32 3
  %16 = load i8, ptr %15, align 8, !range !6, !noundef !7
  %17 = trunc i8 %16 to i1
  %18 = load ptr, ptr %4, align 8
  %19 = getelementptr inbounds ptr, ptr %18, i64 2
  %20 = load ptr, ptr %19, align 8
  call void %20(ptr noundef align 8 dereferenceable_or_null(96) %4, i1 noundef zeroext %17)
  store i1 true, ptr %2, align 1
  br label %22

21:                                               ; preds = %1
  store i1 false, ptr %2, align 1
  br label %22

22:                                               ; preds = %21, %14
  %23 = load i1, ptr %2, align 1
  ret i1 %23
}