; Function Attrs: mustprogress null_pointer_is_valid sspstrong uwtable
define noundef zeroext i1 @_ZN19EnabledProtocolItem10applyValueEv(ptr noundef align 8 dereferenceable_or_null(96) %0) local_unnamed_addr #4 align 2 {
  %2 = getelementptr inbounds nuw i8, ptr %0, i64 89
  %3 = load i8, ptr %2, align 1, !range !6, !noundef !7
  %4 = getelementptr inbounds nuw i8, ptr %0, i64 88
  %5 = load i8, ptr %4, align 8, !range !6, !noundef !7
  %.not = icmp ne i8 %3, %5
  br i1 %.not, label %6, label %11

6:                                                ; preds = %1
  %7 = trunc nuw i8 %5 to i1
  %8 = load ptr, ptr %0, align 8
  %9 = getelementptr inbounds nuw i8, ptr %8, i64 16
  %10 = load ptr, ptr %9, align 8
  tail call void %10(ptr noundef align 8 dereferenceable_or_null(96) %0, i1 noundef zeroext %7)
  br label %11

11:                                               ; preds = %1, %6
  ret i1 %.not
}